target datalayout = "e-m:e-p270:32:32-p271:32:32-p272:64:64-i64:64-i128:128-f80:128-n8:16:32:64-S128"
target triple = "x86_64-pc-linux-gnu"

%struct.AVChannelLayout = type { i32, i32, %union.anon, ptr }
%union.anon = type { i64 }
%struct.AVCodecContext = type { ptr, i32, i32, ptr, i32, i32, ptr, ptr, ptr, i64, i32, i32, ptr, i32, %struct.AVRational, %struct.AVRational, %struct.AVRational, i32, i32, i32, i32, i32, %struct.AVRational, i32, i32, i32, i32, i32, i32, i32, i32, i32, i32, i32, ptr, ptr, i32, float, float, float, float, float, float, float, float, float, i32, i32, i32, i32, i32, i32, i32, i32, i32, i32, i32, i32, ptr, ptr, ptr, i32, i32, i32, i32, i32, i32, i32, i32, i32, i32, %struct.AVChannelLayout, i32, i32, i32, i32, i32, i32, i32, i32, ptr, i32, i32, i32, float, float, i32, i32, i32, i32, i32, ptr, i64, i64, float, float, i32, i32, ptr, ptr, i32, i32, i32, i32, i32, ptr, ptr, ptr, ptr, i32, i32, [8 x i64], i32, i32, i32, i32, i32, i32, i32, ptr, ptr, i32, i32, i32, i32, i32, i32, i32, i32, i32, i32, ptr, ptr, i32, i32, ptr, ptr, ptr, ptr, i32, i32, i64, i32, i32, i64, ptr, i64, ptr, i32, ptr, i32 }
%struct.AVRational = type { i32, i32 }
%struct.AlacEncodeContext = type { ptr, ptr, i32, i32, i32, i32, i32, i32, i32, i32, [2 x [4096 x i32]], [2 x [4096 x i32]], i32, i32, %struct.PutBitContext, %struct.RiceContext, [2 x %struct.AlacLPCContext], %struct.LPCContext }
%struct.PutBitContext = type { i32, i32, ptr, ptr, ptr }
%struct.RiceContext = type { i32, i32, i32, i32 }
%struct.AlacLPCContext = type { i32, [31 x i32], i32 }
%struct.LPCContext = type { i32, i32, i32, ptr, ptr, ptr, ptr, [2 x %struct.LLSModel] }
%struct.LLSModel = type { [36 x [36 x double]], [32 x [32 x double]], [32 x double], i32, ptr, ptr, [8 x i8] }
%struct.AVFrame = type { [8 x ptr], [8 x i32], ptr, i32, i32, i32, i32, i32, %struct.AVRational, i64, i64, %struct.AVRational, i32, ptr, i32, i32, [8 x ptr], ptr, i32, ptr, i32, i32, i32, i32, i32, i32, i32, i64, ptr, i32, ptr, ptr, i64, i64, i64, i64, ptr, %struct.AVChannelLayout, i64 }
%struct.AVPacket = type { ptr, i64, i64, ptr, i32, i32, i32, ptr, i32, i64, i64, ptr, ptr, %struct.AVRational }

; Function Attrs: alwaysinline nounwind uwtable
define internal i32 @get_max_frame_size(i32 noundef %0, i32 noundef %1, i32 noundef %2) #5 {
  %4 = alloca i32, align 4
  %5 = alloca i32, align 4
  %6 = alloca i32, align 4
  %7 = alloca i32, align 4
  store i32 %0, ptr %4, align 4, !tbaa !57
  store i32 %1, ptr %5, align 4, !tbaa !57
  store i32 %2, ptr %6, align 4, !tbaa !57
  call void @llvm.lifetime.start.p0(i64 4, ptr %7) #10
  %8 = load i32, ptr %4, align 4, !tbaa !57
  %9 = icmp slt i32 %8, 4096
  %10 = zext i1 %9 to i32
  %11 = mul nsw i32 32, %10
  %12 = add nsw i32 23, %11
  store i32 %12, ptr %7, align 4, !tbaa !57
  %13 = load i32, ptr %7, align 4, !tbaa !57
  %14 = load i32, ptr %6, align 4, !tbaa !57
  %15 = load i32, ptr %5, align 4, !tbaa !57
  %16 = mul nsw i32 %14, %15
  %17 = load i32, ptr %4, align 4, !tbaa !57
  %18 = mul nsw i32 %16, %17
  %19 = add nsw i32 %13, %18
  %20 = add nsw i32 %19, 3
  %21 = add nsw i32 %20, 8
  %22 = sub nsw i32 %21, 1
  %23 = and i32 %22, -8
  %24 = sdiv i32 %23, 8
  call void @llvm.lifetime.end.p0(i64 4, ptr %7) #10
  ret i32 %24
}

; Function Attrs: nounwind uwtable
define internal i32 @alac_encode_frame(ptr noundef %0, ptr noundef %1, ptr noundef %2, ptr noundef %3) #1 {
  %5 = alloca i32, align 4
  %6 = alloca ptr, align 8
  %7 = alloca ptr, align 8
  %8 = alloca ptr, align 8
  %9 = alloca ptr, align 8
  %10 = alloca ptr, align 8
  %11 = alloca i32, align 4
  %12 = alloca i32, align 4
  %13 = alloca i32, align 4
  %14 = alloca i32, align 4
  store ptr %0, ptr %6, align 8, !tbaa !4
  store ptr %1, ptr %7, align 8, !tbaa !58
  store ptr %2, ptr %8, align 8, !tbaa !60
  store ptr %3, ptr %9, align 8, !tbaa !62
  call void @llvm.lifetime.start.p0(i64 8, ptr %10) #10
  %15 = load ptr, ptr %6, align 8, !tbaa !4
  %16 = getelementptr inbounds nuw %struct.AVCodecContext, ptr %15, i32 0, i32 6
  %17 = load ptr, ptr %16, align 8, !tbaa !9
  store ptr %17, ptr %10, align 8, !tbaa !29
  call void @llvm.lifetime.start.p0(i64 4, ptr %11) #10
  call void @llvm.lifetime.start.p0(i64 4, ptr %12) #10
  call void @llvm.lifetime.start.p0(i64 4, ptr %13) #10
  %18 = load ptr, ptr %8, align 8, !tbaa !60
  %19 = getelementptr inbounds nuw %struct.AVFrame, ptr %18, i32 0, i32 5
  %20 = load i32, ptr %19, align 8, !tbaa !63
  %21 = load ptr, ptr %10, align 8, !tbaa !29
  %22 = getelementptr inbounds nuw %struct.AlacEncodeContext, ptr %21, i32 0, i32 2
  store i32 %20, ptr %22, align 16, !tbaa !31
  %23 = load ptr, ptr %8, align 8, !tbaa !60
  %24 = getelementptr inbounds nuw %struct.AVFrame, ptr %23, i32 0, i32 5
  %25 = load i32, ptr %24, align 8, !tbaa !63
  %26 = icmp slt i32 %25, 4096
  br i1 %26, label %27, label %39

27:                                               ; preds = %4
  %28 = load ptr, ptr %10, align 8, !tbaa !29
  %29 = getelementptr inbounds nuw %struct.AlacEncodeContext, ptr %28, i32 0, i32 2
  %30 = load i32, ptr %29, align 16, !tbaa !31
  %31 = load ptr, ptr %6, align 8, !tbaa !4
  %32 = getelementptr inbounds nuw %struct.AVCodecContext, ptr %31, i32 0, i32 71
  %33 = getelementptr inbounds nuw %struct.AVChannelLayout, ptr %32, i32 0, i32 1
  %34 = load i32, ptr %33, align 4, !tbaa !47
  %35 = load ptr, ptr %6, align 8, !tbaa !4
  %36 = getelementptr inbounds nuw %struct.AVCodecContext, ptr %35, i32 0, i32 115
  %37 = load i32, ptr %36, align 4, !tbaa !39
  %38 = call i32 @get_max_frame_size(i32 noundef %30, i32 noundef %34, i32 noundef %37)
  store i32 %38, ptr %12, align 4, !tbaa !57
  br label %43

39:                                               ; preds = %4
  %40 = load ptr, ptr %10, align 8, !tbaa !29
  %41 = getelementptr inbounds nuw %struct.AlacEncodeContext, ptr %40, i32 0, i32 7
  %42 = load i32, ptr %41, align 4, !tbaa !48
  store i32 %42, ptr %12, align 4, !tbaa !57
  br label %43

43:                                               ; preds = %39, %27
  %44 = load ptr, ptr %6, align 8, !tbaa !4
  %45 = load ptr, ptr %7, align 8, !tbaa !58
  %46 = load i32, ptr %12, align 4, !tbaa !57
  %47 = mul nsw i32 4, %46
  %48 = sext i32 %47 to i64
  %49 = call i32 @ff_alloc_packet(ptr noundef %44, ptr noundef %45, i64 noundef %48)
  store i32 %49, ptr %13, align 4, !tbaa !57
  %50 = icmp slt i32 %49, 0
  br i1 %50, label %51, label %53

51:                                               ; preds = %43
  %52 = load i32, ptr %13, align 4, !tbaa !57
  store i32 %52, ptr %5, align 4
  store i32 1, ptr %14, align 4
  br label %98

53:                                               ; preds = %43
  %54 = load ptr, ptr %10, align 8, !tbaa !29
  %55 = getelementptr inbounds nuw %struct.AlacEncodeContext, ptr %54, i32 0, i32 4
  %56 = load i32, ptr %55, align 8, !tbaa !42
  %57 = icmp ne i32 %56, 0
  br i1 %57, label %58, label %67

58:                                               ; preds = %53
  %59 = load ptr, ptr %10, align 8, !tbaa !29
  %60 = getelementptr inbounds nuw %struct.AlacEncodeContext, ptr %59, i32 0, i32 3
  store i32 0, ptr %60, align 4, !tbaa !68
  %61 = load ptr, ptr %6, align 8, !tbaa !4
  %62 = getelementptr inbounds nuw %struct.AVCodecContext, ptr %61, i32 0, i32 115
  %63 = load i32, ptr %62, align 4, !tbaa !39
  %64 = sub nsw i32 %63, 16
  %65 = load ptr, ptr %10, align 8, !tbaa !29
  %66 = getelementptr inbounds nuw %struct.AlacEncodeContext, ptr %65, i32 0, i32 9
  store i32 %64, ptr %66, align 4, !tbaa !40
  br label %72

67:                                               ; preds = %53
  %68 = load ptr, ptr %10, align 8, !tbaa !29
  %69 = getelementptr inbounds nuw %struct.AlacEncodeContext, ptr %68, i32 0, i32 3
  store i32 1, ptr %69, align 4, !tbaa !68
  %70 = load ptr, ptr %10, align 8, !tbaa !29
  %71 = getelementptr inbounds nuw %struct.AlacEncodeContext, ptr %70, i32 0, i32 9
  store i32 0, ptr %71, align 4, !tbaa !40
  br label %72

72:                                               ; preds = %67, %58
  %73 = load ptr, ptr %10, align 8, !tbaa !29
  %74 = load ptr, ptr %7, align 8, !tbaa !58
  %75 = load ptr, ptr %8, align 8, !tbaa !60
  %76 = getelementptr inbounds nuw %struct.AVFrame, ptr %75, i32 0, i32 2
  %77 = load ptr, ptr %76, align 8, !tbaa !69
  %78 = call i32 @write_frame(ptr noundef %73, ptr noundef %74, ptr noundef %77)
  store i32 %78, ptr %11, align 4, !tbaa !57
  %79 = load i32, ptr %11, align 4, !tbaa !57
  %80 = load i32, ptr %12, align 4, !tbaa !57
  %81 = icmp sgt i32 %79, %80
  br i1 %81, label %82, label %93

82:                                               ; preds = %72
  %83 = load ptr, ptr %10, align 8, !tbaa !29
  %84 = getelementptr inbounds nuw %struct.AlacEncodeContext, ptr %83, i32 0, i32 3
  store i32 1, ptr %84, align 4, !tbaa !68
  %85 = load ptr, ptr %10, align 8, !tbaa !29
  %86 = getelementptr inbounds nuw %struct.AlacEncodeContext, ptr %85, i32 0, i32 9
  store i32 0, ptr %86, align 4, !tbaa !40
  %87 = load ptr, ptr %10, align 8, !tbaa !29
  %88 = load ptr, ptr %7, align 8, !tbaa !58
  %89 = load ptr, ptr %8, align 8, !tbaa !60
  %90 = getelementptr inbounds nuw %struct.AVFrame, ptr %89, i32 0, i32 2
  %91 = load ptr, ptr %90, align 8, !tbaa !69
  %92 = call i32 @write_frame(ptr noundef %87, ptr noundef %88, ptr noundef %91)
  store i32 %92, ptr %11, align 4, !tbaa !57
  br label %93

93:                                               ; preds = %82, %72
  %94 = load i32, ptr %11, align 4, !tbaa !57
  %95 = load ptr, ptr %7, align 8, !tbaa !58
  %96 = getelementptr inbounds nuw %struct.AVPacket, ptr %95, i32 0, i32 4
  store i32 %94, ptr %96, align 8, !tbaa !70
  %97 = load ptr, ptr %9, align 8, !tbaa !62
  store i32 1, ptr %97, align 4, !tbaa !57
  store i32 0, ptr %5, align 4
  store i32 1, ptr %14, align 4
  br label %98

98:                                               ; preds = %93, %51
  call void @llvm.lifetime.end.p0(i64 4, ptr %13) #10
  call void @llvm.lifetime.end.p0(i64 4, ptr %12) #10
  call void @llvm.lifetime.end.p0(i64 4, ptr %11) #10
  call void @llvm.lifetime.end.p0(i64 8, ptr %10) #10
  %99 = load i32, ptr %5, align 4
  ret i32 %99
}