; Function Attrs: nounwind uwtable
define internal range(i32 -2147483648, 1) i32 @alac_encode_frame(ptr noundef %0, ptr noundef %1, ptr noundef readonly captures(none) %2, ptr noundef writeonly captures(none) %3) #1 {
  %5 = getelementptr inbounds nuw i8, ptr %0, i64 32
  %6 = load ptr, ptr %5, align 8, !tbaa !4
  %7 = getelementptr inbounds nuw i8, ptr %2, i64 112
  %8 = load i32, ptr %7, align 8, !tbaa !53
  %9 = getelementptr inbounds nuw i8, ptr %6, i64 16
  store i32 %8, ptr %9, align 16, !tbaa !27
  %10 = icmp slt i32 %8, 4096
  br i1 %10, label %11, label %20

11:                                               ; preds = %4
  %12 = getelementptr inbounds nuw i8, ptr %0, i64 356
  %13 = load i32, ptr %12, align 4, !tbaa !44
  %14 = getelementptr inbounds nuw i8, ptr %0, i64 652
  %15 = load i32, ptr %14, align 4, !tbaa !36
  %16 = mul i32 %13, %8
  %17 = mul i32 %16, %15
  %18 = add nsw i32 %17, 65
  %19 = ashr i32 %18, 3
  br label %23

20:                                               ; preds = %4
  %21 = getelementptr inbounds nuw i8, ptr %6, i64 36
  %22 = load i32, ptr %21, align 4, !tbaa !45
  br label %23

23:                                               ; preds = %20, %11
  %.031 = phi i32 [ %19, %11 ], [ %22, %20 ]
  %24 = shl nsw i32 %.031, 2
  %25 = sext i32 %24 to i64
  %26 = tail call i32 @ff_alloc_packet(ptr noundef nonnull %0, ptr noundef %1, i64 noundef %25) #7
  %27 = icmp slt i32 %26, 0
  br i1 %27, label %48, label %28

28:                                               ; preds = %23
  %29 = getelementptr inbounds nuw i8, ptr %6, i64 24
  %30 = load i32, ptr %29, align 8, !tbaa !39
  %.not = icmp eq i32 %30, 0
  br i1 %.not, label %35, label %31

31:                                               ; preds = %28
  %32 = getelementptr inbounds nuw i8, ptr %0, i64 652
  %33 = load i32, ptr %32, align 4, !tbaa !36
  %34 = add nsw i32 %33, -16
  br label %35

35:                                               ; preds = %28, %31
  %.sink38 = phi i32 [ 0, %31 ], [ 1, %28 ]
  %.sink = phi i32 [ %34, %31 ], [ 0, %28 ]
  %36 = getelementptr inbounds nuw i8, ptr %6, i64 20
  store i32 %.sink38, ptr %36, align 4, !tbaa !58
  %37 = getelementptr inbounds nuw i8, ptr %6, i64 44
  store i32 %.sink, ptr %37, align 4, !tbaa !37
  %38 = getelementptr inbounds nuw i8, ptr %2, i64 96
  %39 = load ptr, ptr %38, align 8, !tbaa !59
  %40 = getelementptr i8, ptr %1, i64 24
  %.val = load ptr, ptr %40, align 8, !tbaa !60
  %41 = getelementptr i8, ptr %1, i64 32
  %.val35 = load i32, ptr %41, align 8, !tbaa !62
  %42 = tail call fastcc i32 @write_frame(ptr noundef nonnull %6, ptr %.val, i32 %.val35, ptr noundef %39)
  %43 = icmp sgt i32 %42, %.031
  br i1 %43, label %44, label %47

44:                                               ; preds = %35
  store i32 1, ptr %36, align 4, !tbaa !58
  store i32 0, ptr %37, align 4, !tbaa !37
  %45 = load ptr, ptr %38, align 8, !tbaa !59
  %.val36 = load ptr, ptr %40, align 8, !tbaa !60
  %.val37 = load i32, ptr %41, align 8, !tbaa !62
  %46 = tail call fastcc i32 @write_frame(ptr noundef nonnull %6, ptr %.val36, i32 %.val37, ptr noundef %45)
  br label %47

47:                                               ; preds = %44, %35
  %.032 = phi i32 [ %46, %44 ], [ %42, %35 ]
  store i32 %.032, ptr %41, align 8, !tbaa !62
  store i32 1, ptr %3, align 4, !tbaa !63
  br label %48

48:                                               ; preds = %23, %47
  %.0 = phi i32 [ 0, %47 ], [ %26, %23 ]
  ret i32 %.0
}